(dp0
S'starts'
p1
(lp2
(I5
I0
tp3
ag3
ag3
ag3
ag3
ag3
ag3
ag3
ag3
ag3
ag3
ag3
ag3
ag3
a(I4
I0
tp4
a(I5
I0
tp5
a(I0
I0
tp6
a(I5
I4
tp7
asS'living_rewards'
p8
(lp9
I0
aI0
aI0
aI0
aI0
aI0
aI0
aI0
aI0
aI0
aI0
aI0
aI0
aI0
aF-0.5
aI0
aF-0.1
aF-0.5
asS'goals'
p10
(lp11
(I5
I9
tp12
ag12
ag12
ag12
ag12
ag12
ag12
ag12
ag12
ag12
ag12
ag12
ag12
ag12
a(I0
I3
tp13
a(I7
I0
tp14
a(I9
I9
tp15
a(I5
I9
tp16
asS'grids'
p17
(lp18
(lp19
(lp20
F0.0
aF0.0
aF0.0
aF0.0
aF0.0
aF0.0
aF0.0
aF0.0
aF0.0
aF0.0
aa(lp21
F0.0
aF0.0
aF0.0
aF0.0
aF0.0
aF0.0
aF0.0
aF0.0
aF0.0
aF0.0
aa(lp22
F0.0
aF0.0
aF0.0
aF-1.0
aF-1.0
aF-1.0
aF0.0
aF0.0
aF0.0
aF0.0
aa(lp23
F0.0
aF0.0
aF0.0
aF-1.0
aF-1.0
aF-1.0
aF0.0
aF0.0
aF0.0
aF0.0
aa(lp24
F0.0
aF0.0
aF0.0
aF0.0
aF0.0
aF0.0
aF0.0
aF0.0
aF0.0
aF0.0
aa(lp25
F0.0
aF0.0
aF0.0
aF0.0
aF0.0
aF0.0
aF0.0
aF0.0
aF0.0
aF0.0
aa(lp26
F0.0
aF0.0
aF0.0
aF1.0
aF1.0
aF1.0
aF0.0
aF0.0
aF0.0
aF0.0
aa(lp27
F0.0
aF0.0
aF0.0
aF1.0
aF1.0
aF1.0
aF0.0
aF0.0
aF0.0
aF0.0
aa(lp28
F0.0
aF0.0
aF0.0
aF0.0
aF0.0
aF0.0
aF0.0
aF0.0
aF0.0
aF0.0
aa(lp29
F0.0
aF0.0
aF0.0
aF0.0
aF0.0
aF0.0
aF0.0
aF0.0
aF0.0
aF0.0
aaa(lp30
(lp31
F0.0
aF0.0
aF0.0
aF0.0
aF0.0
aF0.0
aF0.0
aF0.0
aF0.0
aF0.0
aa(lp32
F0.0
aF0.0
aF0.0
aF0.0
aF0.0
aF0.0
aF0.0
aF0.0
aF0.0
aF0.0
aa(lp33
F0.0
aF0.0
aF0.0
aF0.5
aF0.5
aF0.5
aF0.0
aF0.0
aF0.0
aF0.0
aa(lp34
F0.0
aF0.0
aF0.0
aF0.5
aF0.5
aF0.5
aF0.0
aF0.0
aF0.0
aF0.0
aa(lp35
F0.0
aF0.0
aF0.0
aF0.0
aF0.0
aF0.0
aF0.0
aF0.0
aF0.0
aF0.0
aa(lp36
F0.0
aF0.0
aF0.0
aF0.0
aF0.0
aF0.0
aF0.0
aF0.0
aF0.0
aF0.0
aa(lp37
F0.0
aF0.0
aF0.0
aF1.0
aF1.0
aF1.0
aF0.0
aF0.0
aF0.0
aF0.0
aa(lp38
F0.0
aF0.0
aF0.0
aF1.0
aF1.0
aF1.0
aF0.0
aF0.0
aF0.0
aF0.0
aa(lp39
F0.0
aF0.0
aF0.0
aF0.0
aF0.0
aF0.0
aF0.0
aF0.0
aF0.0
aF0.0
aa(lp40
F0.0
aF0.0
aF0.0
aF0.0
aF0.0
aF0.0
aF0.0
aF0.0
aF0.0
aF0.0
aaa(lp41
(lp42
F0.0
aF0.0
aF0.0
aF0.0
aF0.0
aF0.0
aF0.0
aF0.0
aF0.0
aF0.0
aa(lp43
F0.0
aF0.0
aF0.0
aF0.0
aF0.0
aF0.0
aF0.0
aF0.0
aF0.0
aF0.0
aa(lp44
F0.0
aF0.0
aF0.0
aF0.0
aF0.0
aF0.0
aF0.0
aF0.0
aF0.0
aF0.0
aa(lp45
F0.0
aF0.0
aF0.0
aF0.0
aF0.0
aF0.0
aF0.0
aF0.0
aF0.0
aF0.0
aa(lp46
F0.0
aF0.0
aF0.0
aF0.0
aF0.0
aF0.0
aF0.0
aF0.0
aF0.0
aF0.0
aa(lp47
F0.0
aF0.0
aF0.0
aF0.0
aF0.0
aF0.0
aF0.0
aF0.0
aF0.0
aF0.0
aa(lp48
F0.0
aF0.0
aF0.0
aF0.0
aF0.0
aF0.0
aF0.0
aF0.0
aF0.0
aF0.0
aa(lp49
F0.0
aF0.0
aF0.0
aF0.0
aF0.0
aF0.0
aF0.0
aF0.0
aF0.0
aF0.0
aa(lp50
F0.0
aF0.0
aF0.0
aF-1.0
aF-1.0
aF-1.0
aF0.0
aF0.0
aF0.0
aF0.0
aa(lp51
F0.0
aF0.0
aF0.0
aF-1.0
aF-1.0
aF-1.0
aF0.0
aF0.0
aF0.0
aF0.0
aaa(lp52
(lp53
F0.0
aF0.0
aF0.0
aF-1.0
aF-1.0
aF-1.0
aF0.0
aF0.0
aF0.0
aF0.0
aa(lp54
F0.0
aF0.0
aF0.0
aF-1.0
aF-1.0
aF-1.0
aF0.0
aF0.0
aF0.0
aF0.0
aa(lp55
F0.0
aF0.0
aF0.0
aF0.0
aF0.0
aF0.0
aF0.0
aF0.0
aF0.0
aF0.0
aa(lp56
F0.0
aF0.0
aF0.0
aF0.0
aF0.0
aF0.0
aF0.0
aF0.0
aF0.0
aF0.0
aa(lp57
F0.0
aF0.0
aF0.0
aF0.0
aF0.0
aF0.0
aF0.0
aF0.0
aF0.0
aF0.0
aa(lp58
F0.0
aF0.0
aF0.0
aF0.0
aF0.0
aF0.0
aF0.0
aF0.0
aF0.0
aF0.0
aa(lp59
F0.0
aF0.0
aF0.0
aF0.0
aF0.0
aF0.0
aF0.0
aF0.0
aF0.0
aF0.0
aa(lp60
F0.0
aF0.0
aF0.0
aF0.0
aF0.0
aF0.0
aF0.0
aF0.0
aF0.0
aF0.0
aa(lp61
F0.0
aF0.0
aF0.0
aF-0.5
aF-0.5
aF-0.5
aF0.0
aF0.0
aF0.0
aF0.0
aa(lp62
F0.0
aF0.0
aF0.0
aF-0.5
aF-0.5
aF-0.5
aF0.0
aF0.0
aF0.0
aF0.0
aaa(lp63
(lp64
F0.0
aF0.0
aF0.0
aF0.0
aF0.0
aF0.0
aF0.0
aF0.0
aF0.0
aF0.0
aa(lp65
F0.0
aF0.0
aF0.0
aF0.0
aF0.0
aF0.0
aF0.0
aF0.0
aF0.0
aF0.0
aa(lp66
F0.0
aF0.0
aF0.0
aF0.0
aF0.0
aF0.0
aF0.0
aF0.0
aF0.0
aF0.0
aa(lp67
F0.0
aF0.0
aF0.0
aF0.0
aF0.0
aF0.0
aF0.0
aF0.0
aF0.0
aF0.0
aa(lp68
F0.0
aF0.0
aF0.0
aF0.5
aF0.5
aF0.0
aF1.0
aF1.0
aF0.0
aF0.0
aa(lp69
F0.0
aF0.0
aF0.0
aF0.5
aF0.5
aF0.0
aF1.0
aF1.0
aF0.0
aF0.0
aa(lp70
F0.0
aF0.0
aF0.0
aF0.5
aF0.5
aF0.0
aF1.0
aF1.0
aF0.0
aF0.0
aa(lp71
F0.0
aF0.0
aF0.0
aF0.0
aF0.0
aF0.0
aF0.0
aF0.0
aF0.0
aF0.0
aa(lp72
F0.0
aF0.0
aF0.0
aF0.0
aF0.0
aF0.0
aF0.0
aF0.0
aF0.0
aF0.0
aa(lp73
F0.0
aF0.0
aF0.0
aF0.0
aF0.0
aF0.0
aF0.0
aF0.0
aF0.0
aF0.0
aaa(lp74
(lp75
F0.0
aF0.0
aF0.0
aF0.0
aF0.0
aF0.0
aF0.0
aF0.0
aF0.0
aF0.0
aa(lp76
F0.0
aF0.0
aF0.0
aF0.0
aF0.0
aF0.0
aF0.0
aF0.0
aF0.0
aF0.0
aa(lp77
F0.0
aF0.0
aF0.0
aF0.0
aF0.0
aF0.0
aF0.0
aF0.0
aF0.0
aF0.0
aa(lp78
F0.0
aF0.0
aF0.0
aF0.0
aF0.0
aF0.0
aF0.0
aF0.0
aF0.0
aF0.0
aa(lp79
F0.0
aF0.0
aF0.0
aF-1.0
aF-1.0
aF0.0
aF-0.5
aF-0.5
aF0.0
aF0.0
aa(lp80
F0.0
aF0.0
aF0.0
aF-1.0
aF-1.0
aF0.0
aF-0.5
aF-0.5
aF0.0
aF0.0
aa(lp81
F0.0
aF0.0
aF0.0
aF-1.0
aF-1.0
aF0.0
aF-0.5
aF-0.5
aF0.0
aF0.0
aa(lp82
F0.0
aF0.0
aF0.0
aF0.0
aF0.0
aF0.0
aF0.0
aF0.0
aF0.0
aF0.0
aa(lp83
F0.0
aF0.0
aF0.0
aF0.0
aF0.0
aF0.0
aF0.0
aF0.0
aF0.0
aF0.0
aa(lp84
F0.0
aF0.0
aF0.0
aF0.0
aF0.0
aF0.0
aF0.0
aF0.0
aF0.0
aF0.0
aaa(lp85
(lp86
F0.0
aF0.0
aF0.0
aF0.0
aF0.0
aF0.0
aF0.0
aF0.0
aF0.0
aF0.0
aa(lp87
F0.0
aF0.0
aF0.0
aF0.0
aF0.0
aF0.0
aF0.0
aF0.0
aF0.0
aF0.0
aa(lp88
F0.0
aF0.0
aF-1.0
aF-1.0
aF-1.0
aF1.0
aF1.0
aF1.0
aF0.0
aF0.0
aa(lp89
F0.0
aF0.0
aF-1.0
aF-1.0
aF-1.0
aF1.0
aF1.0
aF1.0
aF0.0
aF0.0
aa(lp90
F0.0
aF0.0
aF0.5
aF0.5
aF0.5
aF-0.5
aF-0.5
aF-0.5
aF0.0
aF0.0
aa(lp91
F0.0
aF0.0
aF0.5
aF0.5
aF0.5
aF-0.5
aF-0.5
aF-0.5
aF0.0
aF0.0
aa(lp92
F0.0
aF0.0
aF0.0
aF0.0
aF0.0
aF0.0
aF0.0
aF0.0
aF0.0
aF0.0
aa(lp93
F0.0
aF0.0
aF0.0
aF0.0
aF0.0
aF0.0
aF0.0
aF0.0
aF0.0
aF0.0
aa(lp94
F0.0
aF0.0
aF0.0
aF0.0
aF0.0
aF0.0
aF0.0
aF0.0
aF0.0
aF0.0
aa(lp95
F0.0
aF0.0
aF0.0
aF0.0
aF0.0
aF0.0
aF0.0
aF0.0
aF0.0
aF0.0
aaa(lp96
(lp97
F0.0
aF0.0
aF0.0
aF0.0
aF0.0
aF0.0
aF0.0
aF0.0
aF0.0
aF0.0
aa(lp98
F0.0
aF0.0
aF0.0
aF0.0
aF0.0
aF0.0
aF0.0
aF0.0
aF0.0
aF0.0
aa(lp99
F0.0
aF0.0
aF0.0
aF0.0
aF-1.0
aF-1.0
aF-1.0
aF0.0
aF0.0
aF0.0
aa(lp100
F0.0
aF0.0
aF0.0
aF0.0
aF-1.0
aF-1.0
aF-1.0
aF0.0
aF0.0
aF0.0
aa(lp101
F0.0
aF0.0
aF0.0
aF0.0
aF0.0
aF0.0
aF0.0
aF0.0
aF0.0
aF0.0
aa(lp102
F0.0
aF0.0
aF0.0
aF0.0
aF-0.5
aF-0.5
aF-0.5
aF0.0
aF0.0
aF0.0
aa(lp103
F0.0
aF0.0
aF0.0
aF0.0
aF-0.5
aF-0.5
aF-0.5
aF0.0
aF0.0
aF0.0
aa(lp104
F0.0
aF0.0
aF0.0
aF0.0
aF0.0
aF0.0
aF0.0
aF0.0
aF0.0
aF0.0
aa(lp105
F0.0
aF0.0
aF0.0
aF0.0
aF0.0
aF0.0
aF0.0
aF0.0
aF0.0
aF0.0
aa(lp106
F0.0
aF0.0
aF0.0
aF0.0
aF0.0
aF0.0
aF0.0
aF0.0
aF0.0
aF0.0
aaa(lp107
(lp108
F0.0
aF0.0
aF0.0
aF0.0
aF0.0
aF0.0
aF0.0
aF0.0
aF0.0
aF0.0
aa(lp109
F0.0
aF0.0
aF0.0
aF0.0
aF0.0
aF0.0
aF0.0
aF0.0
aF0.0
aF0.0
aa(lp110
F0.0
aF0.0
aF0.0
aF0.0
aF0.0
aF0.0
aF0.0
aF0.0
aF0.0
aF0.0
aa(lp111
F0.0
aF0.0
aF0.5
aF0.5
aF0.5
aF0.0
aF1.0
aF1.0
aF1.0
aF0.0
aa(lp112
F0.0
aF0.0
aF0.5
aF0.5
aF0.5
aF0.0
aF1.0
aF1.0
aF1.0
aF0.0
aa(lp113
F0.0
aF0.0
aF0.0
aF0.0
aF0.0
aF0.0
aF0.0
aF0.0
aF0.0
aF0.0
aa(lp114
F0.0
aF0.0
aF0.0
aF0.0
aF0.0
aF0.0
aF0.0
aF0.0
aF0.0
aF0.0
aa(lp115
F0.0
aF0.0
aF0.0
aF0.0
aF-1.0
aF-1.0
aF-1.0
aF0.0
aF0.0
aF0.0
aa(lp116
F0.0
aF0.0
aF0.0
aF0.0
aF-1.0
aF-1.0
aF-1.0
aF0.0
aF0.0
aF0.0
aa(lp117
F0.0
aF0.0
aF0.0
aF0.0
aF0.0
aF0.0
aF0.0
aF0.0
aF0.0
aF0.0
aaa(lp118
(lp119
F-1.0
aF-1.0
aF-1.0
aF1.0
aF1.0
aF1.0
aF1.0
aF1.0
aF1.0
aF1.0
aa(lp120
F1.0
aF1.0
aF1.0
aF1.0
aF-1.0
aF1.0
aF-1.0
aF-1.0
aF1.0
aF1.0
aa(lp121
F1.0
aF-1.0
aF-1.0
aF-1.0
aF-1.0
aF1.0
aF-1.0
aF-1.0
aF1.0
aF1.0
aa(lp122
F1.0
aF-1.0
aF-1.0
aF1.0
aF1.0
aF1.0
aF-1.0
aF-1.0
aF1.0
aF1.0
aa(lp123
F1.0
aF-1.0
aF-1.0
aF1.0
aF-1.0
aF-1.0
aF-1.0
aF-1.0
aF-1.0
aF-0.5
aa(lp124
F1.0
aF1.0
aF-1.0
aF1.0
aF-1.0
aF-1.0
aF-1.0
aF-1.0
aF-1.0
aF1.0
aa(lp125
F-1.0
aF-1.0
aF-1.0
aF1.0
aF-1.0
aF-1.0
aF-1.0
aF-1.0
aF-1.0
aF1.0
aa(lp126
F1.0
aF1.0
aF1.0
aF1.0
aF-1.0
aF-1.0
aF-1.0
aF-1.0
aF-1.0
aF1.0
aa(lp127
F1.0
aF-1.0
aF-1.0
aF-1.0
aF-1.0
aF-1.0
aF-1.0
aF-1.0
aF-1.0
aF1.0
aa(lp128
F1.0
aF1.0
aF1.0
aF1.0
aF1.0
aF1.0
aF1.0
aF1.0
aF1.0
aF1.0
aaa(lp129
(lp130
F0.0
aF0.0
aF0.0
aF0.0
aF0.0
aF0.0
aF0.0
aF0.0
aF0.0
aF0.0
aa(lp131
F0.0
aF0.0
aF0.0
aF0.0
aF0.0
aF0.0
aF0.0
aF0.0
aF0.0
aF0.0
aa(lp132
F0.0
aF0.0
aF0.0
aF0.0
aF0.0
aF0.0
aF0.0
aF0.0
aF0.0
aF0.0
aa(lp133
F0.0
aF0.0
aF0.0
aF0.0
aF0.0
aF0.0
aF0.0
aF0.0
aF0.0
aF0.0
aa(lp134
F0.0
aF0.0
aF0.0
aF0.0
aF-1.0
aF-1.0
aF-1.0
aF0.0
aF0.0
aF0.0
aa(lp135
F0.0
aF0.0
aF0.0
aF0.0
aF-1.0
aF1.0
aF-0.5
aF0.0
aF0.0
aF0.0
aa(lp136
F0.0
aF0.0
aF0.0
aF0.0
aF-1.0
aF-1.0
aF-1.0
aF0.0
aF0.0
aF0.0
aa(lp137
F0.0
aF0.0
aF0.0
aF0.0
aF0.0
aF0.0
aF0.0
aF0.0
aF0.0
aF0.0
aa(lp138
F0.0
aF0.0
aF0.0
aF0.0
aF0.0
aF0.0
aF0.0
aF0.0
aF0.0
aF0.0
aa(lp139
F0.0
aF0.0
aF0.0
aF0.0
aF0.0
aF0.0
aF0.0
aF0.0
aF0.0
aF0.0
aaa(lp140
(lp141
F0.0
aF0.0
aF0.0
aF0.0
aF0.0
aF0.0
aF0.0
aF0.0
aF0.0
aF0.0
aa(lp142
F0.0
aF0.0
aF0.0
aF0.0
aF0.0
aF0.0
aF0.0
aF0.0
aF0.0
aF0.0
aa(lp143
F0.0
aF0.0
aF0.0
aF0.0
aF0.0
aF0.0
aF0.0
aF0.0
aF0.0
aF0.0
aa(lp144
F0.0
aF0.0
aF-1.0
aF-1.0
aF-1.0
aF-1.0
aF-1.0
aF0.0
aF0.0
aF0.0
aa(lp145
F0.0
aF0.0
aF-1.0
aF-1.0
aF-1.0
aF-1.0
aF-1.0
aF0.0
aF0.0
aF0.0
aa(lp146
F0.0
aF0.0
aF-1.0
aF-1.0
aF1.0
aF-1.0
aF-1.0
aF0.0
aF0.0
aF0.0
aa(lp147
F0.0
aF0.0
aF-1.0
aF-1.0
aF-1.0
aF-1.0
aF-1.0
aF0.0
aF0.0
aF0.0
aa(lp148
F0.0
aF0.0
aF-1.0
aF-1.0
aF-1.0
aF-1.0
aF-1.0
aF0.0
aF0.0
aF0.0
aa(lp149
F0.0
aF0.0
aF0.0
aF0.0
aF0.0
aF0.0
aF0.0
aF0.0
aF0.0
aF0.0
aa(lp150
F0.0
aF0.0
aF0.0
aF0.0
aF0.0
aF0.0
aF0.0
aF0.0
aF0.0
aF0.0
aaa(lp151
(lp152
F0.0
aF0.0
aF1.0
aF1.0
aF1.0
aF1.0
aF1.0
aF1.0
aF1.0
aF1.0
aa(lp153
F0.0
aF0.0
aF1.0
aF1.0
aF1.0
aF1.0
aF1.0
aF-1.0
aF-1.0
aF-1.0
aa(lp154
F0.0
aF0.0
aF1.0
aF1.0
aF1.0
aF1.0
aF1.0
aF-1.0
aF-1.0
aF-1.0
aa(lp155
F0.0
aF0.0
aF1.0
aF1.0
aF1.0
aF1.0
aF1.0
aF-1.0
aF-1.0
aF-1.0
aa(lp156
F0.0
aF0.0
aF1.0
aF1.0
aF1.0
aF1.0
aF1.0
aF-1.0
aF-1.0
aF-1.0
aa(lp157
F0.0
aF0.0
aF0.0
aF0.0
aF0.0
aF0.0
aF0.0
aF0.0
aF0.0
aF0.0
aa(lp158
F0.0
aF0.0
aF0.0
aF0.0
aF0.0
aF0.0
aF0.0
aF0.0
aF0.0
aF0.0
aa(lp159
F0.0
aF0.0
aF0.0
aF0.0
aF0.0
aF0.0
aF0.0
aF0.0
aF0.0
aF0.0
aa(lp160
F0.0
aF0.0
aF0.0
aF0.0
aF0.0
aF0.0
aF0.0
aF0.0
aF0.0
aF0.0
aa(lp161
F0.0
aF0.0
aF0.0
aF0.0
aF0.0
aF0.0
aF0.0
aF0.0
aF0.0
aF0.0
aaa(lp162
(lp163
F0.0
aF0.0
aF0.0
aF0.0
aF0.0
aF0.0
aF0.0
aF0.0
aF0.0
aF0.0
aa(lp164
F0.0
aF0.0
aF0.0
aF0.0
aF0.0
aF0.0
aF0.0
aF0.0
aF0.0
aF0.0
aa(lp165
F0.0
aF0.0
aF0.0
aF0.0
aF1.0
aF0.0
aF0.0
aF0.0
aF0.0
aF0.0
aa(lp166
F0.0
aF0.0
aF0.0
aF0.0
aF0.0
aF0.0
aF0.0
aF0.0
aF0.0
aF0.0
aa(lp167
F0.0
aF0.0
aF0.0
aF0.0
aF0.0
aF0.0
aF0.0
aF0.0
aF0.0
aF0.0
aa(lp168
F0.0
aF0.0
aF0.0
aF0.0
aF0.0
aF0.0
aF0.0
aF0.0
aF0.0
aF0.0
aa(lp169
F0.0
aF0.0
aF0.0
aF0.0
aF0.5
aF0.0
aF0.0
aF0.0
aF0.0
aF0.0
aa(lp170
F0.0
aF0.0
aF0.0
aF0.0
aF0.5
aF0.0
aF0.0
aF0.0
aF0.0
aF0.0
aa(lp171
F0.0
aF0.0
aF0.0
aF0.0
aF0.5
aF0.0
aF0.0
aF0.0
aF0.0
aF0.0
aa(lp172
F0.0
aF0.0
aF0.0
aF0.0
aF0.0
aF0.0
aF0.0
aF0.0
aF0.0
aF0.0
aaa(lp173
(lp174
F0.0
aF0.0
aF0.0
aF0.0
aF0.0
aF0.0
aF0.0
aF0.0
aF0.0
aF0.0
aa(lp175
F0.0
aF-1.0
aF-1.0
aF-1.0
aF0.0
aF0.0
aF0.0
aF0.0
aF0.0
aF0.0
aa(lp176
F0.0
aF-1.0
aF-1.0
aF-1.0
aF0.0
aF0.0
aF0.0
aF0.0
aF0.0
aF0.0
aa(lp177
F0.0
aF-1.0
aF-1.0
aF-1.0
aF0.0
aF0.0
aF0.0
aF0.0
aF0.0
aF0.0
aa(lp178
F0.0
aF0.0
aF0.0
aF0.0
aF0.0
aF0.0
aF1.0
aF1.0
aF0.0
aF0.0
aa(lp179
F0.0
aF0.0
aF0.0
aF0.0
aF0.0
aF0.0
aF1.0
aF1.0
aF0.0
aF0.0
aa(lp180
F0.0
aF0.0
aF0.0
aF0.0
aF0.0
aF0.0
aF1.0
aF1.0
aF0.0
aF0.0
aa(lp181
F0.0
aF0.0
aF0.0
aF0.0
aF0.0
aF0.0
aF0.0
aF0.0
aF0.0
aF0.0
aa(lp182
F0.0
aF0.0
aF0.0
aF0.0
aF0.0
aF0.0
aF0.0
aF0.0
aF0.0
aF0.0
aa(lp183
F0.0
aF0.0
aF0.0
aF0.0
aF0.0
aF0.0
aF0.0
aF0.0
aF0.0
aF0.0
aaa(lp184
(lp185
F0.0
aF-1.0
aF-1.0
aF-1.0
aF0.0
aF0.0
aF0.0
aF0.0
aF0.0
aF0.0
aa(lp186
F0.0
aF-1.0
aF-1.0
aF-1.0
aF0.0
aF0.0
aF0.0
aF0.0
aF0.0
aF0.0
aa(lp187
F0.0
aF-1.0
aF-1.0
aF-1.0
aF0.0
aF0.0
aF0.0
aF0.0
aF0.0
aF0.0
aa(lp188
F0.0
aF-1.0
aF-1.0
aF-1.0
aF0.0
aF0.0
aF0.0
aF0.0
aF0.0
aF0.0
aa(lp189
F0.0
aF-1.0
aF-1.0
aF-1.0
aF0.0
aF0.0
aF0.0
aF0.0
aF0.0
aF0.0
aa(lp190
F0.0
aF-1.0
aF-1.0
aF-1.0
aF0.0
aF0.5
aF0.5
aF0.0
aF0.0
aF0.0
aa(lp191
F-1.0
aF-1.0
aF-1.0
aF0.0
aF0.0
aF0.0
aF0.0
aF0.0
aF0.0
aF0.0
aa(lp192
F0.0
aF-1.0
aF0.0
aF0.0
aF0.0
aF1.0
aF1.0
aF0.0
aF0.0
aF0.0
aa(lp193
F0.0
aF0.0
aF0.0
aF0.0
aF0.0
aF0.0
aF0.0
aF0.0
aF0.0
aF0.0
aa(lp194
F0.0
aF0.0
aF0.0
aF0.0
aF0.0
aF0.0
aF0.0
aF0.0
aF0.0
aF0.0
aaa(lp195
(lp196
F0.0
aF0.0
aF0.0
aF0.0
aF0.0
aF0.0
aF0.0
aF0.0
aF0.0
aF0.0
aa(lp197
F0.0
aF0.0
aF0.0
aF0.0
aF0.0
aF0.0
aF0.0
aF0.0
aF0.0
aF0.0
aa(lp198
F0.0
aF0.0
aF0.0
aF0.0
aF0.0
aF0.0
aF0.0
aF0.0
aF0.0
aF0.0
aa(lp199
F0.0
aF0.0
aF0.0
aF0.0
aF0.0
aF0.0
aF0.0
aF0.0
aF0.0
aF0.0
aa(lp200
F0.0
aF0.0
aF0.0
aF0.0
aF0.0
aF0.0
aF0.0
aF0.0
aF0.0
aF0.0
aa(lp201
F0.0
aF0.0
aF0.0
aF0.0
aF0.0
aF0.0
aF0.0
aF0.0
aF0.0
aF0.0
aa(lp202
F0.0
aF0.0
aF0.0
aF0.0
aF0.0
aF0.0
aF0.0
aF0.0
aF0.0
aF0.0
aa(lp203
F0.0
aF0.0
aF0.0
aF0.0
aF0.0
aF0.0
aF0.0
aF0.0
aF0.0
aF0.0
aa(lp204
F0.0
aF0.0
aF0.0
aF0.0
aF0.0
aF0.0
aF0.0
aF0.0
aF0.0
aF0.0
aa(lp205
F0.0
aF0.0
aF0.0
aF0.0
aF0.0
aF0.0
aF0.0
aF0.0
aF0.0
aF0.0
aaa(lp206
(lp207
F0.0
aF0.0
aF0.0
aF0.0
aF0.0
aF0.0
aF0.0
aF0.0
aF0.0
aF0.0
aa(lp208
F0.0
aF0.5
aF0.5
aF0.5
aF0.0
aF1.0
aF1.0
aF1.0
aF0.0
aF0.0
aa(lp209
F0.0
aF0.5
aF0.5
aF0.5
aF0.0
aF1.0
aF1.0
aF1.0
aF0.0
aF0.0
aa(lp210
F0.0
aF0.5
aF0.5
aF0.5
aF0.0
aF1.0
aF1.0
aF1.0
aF0.0
aF0.0
aa(lp211
F0.0
aF0.0
aF0.0
aF0.0
aF0.0
aF0.0
aF0.0
aF0.0
aF0.0
aF0.0
aa(lp212
F0.0
aF0.0
aF0.0
aF0.0
aF0.0
aF0.0
aF0.0
aF0.0
aF0.0
aF0.0
aa(lp213
F0.0
aF0.0
aF0.0
aF-1.0
aF-1.0
aF-1.0
aF0.0
aF0.0
aF0.0
aF0.0
aa(lp214
F0.0
aF0.0
aF0.0
aF-1.0
aF-1.0
aF-1.0
aF0.0
aF0.0
aF0.0
aF0.0
aa(lp215
F0.0
aF0.0
aF0.0
aF-1.0
aF-1.0
aF-1.0
aF0.0
aF0.0
aF0.0
aF0.0
aa(lp216
F0.0
aF0.0
aF0.0
aF0.0
aF0.0
aF0.0
aF0.0
aF0.0
aF0.0
aF0.0
aaas.